target datalayout = "e-m:e-p270:32:32-p271:32:32-p272:64:64-i64:64-i128:128-f80:128-n8:16:32:64-S128"
target triple = "x86_64-pc-linux-gnu"

%union.pthread_mutex_t = type { %struct.__pthread_mutex_s }
%struct.__pthread_mutex_s = type { i32, i32, i32, i32, i32, i16, i16, %struct.__pthread_internal_list }
%struct.__pthread_internal_list = type { ptr, ptr }
%struct.thread_status_t = type { ptr, i64, %union.pthread_mutex_t, %union.pthread_cond_t, [24 x i8] }
%union.pthread_cond_t = type { %struct.__pthread_cond_s }
%struct.__pthread_cond_s = type { %union.__atomic_wide_counter, %union.__atomic_wide_counter, [2 x i32], [2 x i32], i32, i32, [2 x i32] }
%union.__atomic_wide_counter = type { i64 }
%struct.blas_queue = type { ptr, i64, i64, ptr, ptr, ptr, ptr, ptr, ptr, %union.pthread_mutex_t, %union.pthread_cond_t, i32, i32 }

@thread_status = internal global [16 x %struct.thread_status_t] zeroinitializer, align 128

; Function Attrs: nounwind uwtable
define i32 @exec_blas_async_wait(i64 noundef %0, ptr noundef %1) #0 {
  %3 = alloca i64, align 8
  %4 = alloca ptr, align 8
  %5 = alloca ptr, align 8
  %6 = alloca ptr, align 8
  %7 = alloca ptr, align 8
  store i64 %0, ptr %3, align 8, !tbaa !7
  store ptr %1, ptr %4, align 8, !tbaa !11
  call void @llvm.lifetime.start.p0(i64 8, ptr %5) #8
  br label %8

8:                                                ; preds = %35, %2
  %9 = load i64, ptr %3, align 8, !tbaa !7
  %10 = icmp sgt i64 %9, 0
  br i1 %10, label %11, label %14

11:                                               ; preds = %8
  %12 = load ptr, ptr %4, align 8, !tbaa !11
  %13 = icmp ne ptr %12, null
  br label %14

14:                                               ; preds = %11, %8
  %15 = phi i1 [ false, %8 ], [ %13, %11 ]
  br i1 %15, label %16, label %41

16:                                               ; preds = %14
  %17 = load ptr, ptr %4, align 8, !tbaa !11
  %18 = getelementptr inbounds nuw %struct.blas_queue, ptr %17, i32 0, i32 2
  %19 = load i64, ptr %18, align 8, !tbaa !31
  %20 = getelementptr inbounds [16 x %struct.thread_status_t], ptr @thread_status, i64 0, i64 %19
  %21 = getelementptr inbounds nuw %struct.thread_status_t, ptr %20, i32 0, i32 0
  %22 = load atomic volatile i64, ptr %21 monotonic, align 128
  store i64 %22, ptr %6, align 8
  %23 = load ptr, ptr %6, align 8, !tbaa !11
  store ptr %23, ptr %5, align 8, !tbaa !11
  br label %24

24:                                               ; preds = %27, %16
  %25 = load ptr, ptr %5, align 8, !tbaa !11
  %26 = icmp ne ptr %25, null
  br i1 %26, label %27, label %35

27:                                               ; preds = %24
  call void asm sideeffect "nop;nop;nop;nop;nop;nop;nop;nop;\0A", "~{dirflag},~{fpsr},~{flags}"() #8, !srcloc !43
  %28 = load ptr, ptr %4, align 8, !tbaa !11
  %29 = getelementptr inbounds nuw %struct.blas_queue, ptr %28, i32 0, i32 2
  %30 = load i64, ptr %29, align 8, !tbaa !31
  %31 = getelementptr inbounds [16 x %struct.thread_status_t], ptr @thread_status, i64 0, i64 %30
  %32 = getelementptr inbounds nuw %struct.thread_status_t, ptr %31, i32 0, i32 0
  %33 = load atomic volatile i64, ptr %32 monotonic, align 128
  store i64 %33, ptr %7, align 8
  %34 = load ptr, ptr %7, align 8, !tbaa !11
  store ptr %34, ptr %5, align 8, !tbaa !11
  br label %24, !llvm.loop !44

35:                                               ; preds = %24
  %36 = load ptr, ptr %4, align 8, !tbaa !11
  %37 = getelementptr inbounds nuw %struct.blas_queue, ptr %36, i32 0, i32 8
  %38 = load ptr, ptr %37, align 8, !tbaa !33
  store ptr %38, ptr %4, align 8, !tbaa !11
  %39 = load i64, ptr %3, align 8, !tbaa !7
  %40 = add nsw i64 %39, -1
  store i64 %40, ptr %3, align 8, !tbaa !7
  br label %8, !llvm.loop !45

41:                                               ; preds = %14
  br label %42

42:                                               ; preds = %41
  call void asm sideeffect "", "~{memory},~{dirflag},~{fpsr},~{flags}"() #8, !srcloc !46
  br label %43

43:                                               ; preds = %42
  br label %44

44:                                               ; preds = %43
  call void @llvm.lifetime.end.p0(i64 8, ptr %5) #8
  ret i32 0
}