; Function Attrs: nounwind uwtable
define noundef i32 @exec_blas_async_wait(i64 noundef %0, ptr noundef readonly captures(address_is_null) %1) local_unnamed_addr #0 {
  %3 = icmp sgt i64 %0, 0
  %4 = icmp ne ptr %1, null
  %5 = and i1 %3, %4
  br i1 %5, label %.lr.ph14, label %._crit_edge15

.lr.ph14:                                         ; preds = %2, %._crit_edge
  %.012 = phi i64 [ %15, %._crit_edge ], [ %0, %2 ]
  %.0811 = phi ptr [ %14, %._crit_edge ], [ %1, %2 ]
  %6 = getelementptr inbounds nuw i8, ptr %.0811, i64 16
  %7 = load i64, ptr %6, align 8, !tbaa !37
  %8 = getelementptr inbounds [16 x %struct.thread_status_t], ptr @thread_status, i64 0, i64 %7
  %9 = load atomic volatile i64, ptr %8 monotonic, align 128
  %.not10 = icmp eq i64 %9, 0
  br i1 %.not10, label %._crit_edge, label %.lr.ph

.lr.ph:                                           ; preds = %.lr.ph14, %.lr.ph
  tail call void asm sideeffect "nop;nop;nop;nop;nop;nop;nop;nop;\0A", "~{dirflag},~{fpsr},~{flags}"() #10, !srcloc !42
  %10 = load i64, ptr %6, align 8, !tbaa !37
  %11 = getelementptr inbounds [16 x %struct.thread_status_t], ptr @thread_status, i64 0, i64 %10
  %12 = load atomic volatile i64, ptr %11 monotonic, align 128
  %.not = icmp eq i64 %12, 0
  br i1 %.not, label %._crit_edge, label %.lr.ph, !llvm.loop !43

._crit_edge:                                      ; preds = %.lr.ph, %.lr.ph14
  %13 = getelementptr inbounds nuw i8, ptr %.0811, i64 64
  %14 = load ptr, ptr %13, align 8, !tbaa !39
  %15 = add nsw i64 %.012, -1
  %16 = icmp sgt i64 %.012, 1
  %17 = icmp ne ptr %14, null
  %18 = select i1 %16, i1 %17, i1 false
  br i1 %18, label %.lr.ph14, label %._crit_edge15, !llvm.loop !44

._crit_edge15:                                    ; preds = %._crit_edge, %2
  tail call void asm sideeffect "", "~{memory},~{dirflag},~{fpsr},~{flags}"() #10, !srcloc !45
  ret i32 0
}